; Function Attrs: mustprogress nounwind uwtable
define hidden void @_ZN11StringTable23trigger_concurrent_workEv() local_unnamed_addr #0 align 2 {
  %1 = load volatile i8, ptr @_ZN11StringTable9_has_workE, align 1
  %2 = trunc i8 %1 to i1
  tail call void asm sideeffect "", "~{memory},~{dirflag},~{fpsr},~{flags}"() #17, !srcloc !9
  br i1 %2, label %_ZN11MutexLockerD2Ev.exit, label %3

3:                                                ; preds = %0
  %4 = load ptr, ptr @Service_lock, align 8
  %.not.i.i = icmp eq ptr %4, null
  br i1 %.not.i.i, label %_ZN11MutexLockerC2EP5MutexNS0_18SafepointCheckFlagE.exit.thread, label %5

_ZN11MutexLockerC2EP5MutexNS0_18SafepointCheckFlagE.exit.thread: ; preds = %3
  store volatile i8 1, ptr @_ZN11StringTable9_has_workE, align 1
  tail call void @_ZN7Monitor10notify_allEv(ptr noundef nonnull align 8 dereferenceable(104) null) #17
  br label %_ZN11MutexLockerD2Ev.exit

5:                                                ; preds = %3
  tail call void @_ZN5Mutex28lock_without_safepoint_checkEv(ptr noundef nonnull align 8 dereferenceable(104) %4) #17
  store volatile i8 1, ptr @_ZN11StringTable9_has_workE, align 1
  %6 = load ptr, ptr @Service_lock, align 8
  tail call void @_ZN7Monitor10notify_allEv(ptr noundef nonnull align 8 dereferenceable(104) %6) #17
  tail call void @_ZN5Mutex6unlockEv(ptr noundef nonnull align 8 dereferenceable(104) %4) #17
  br label %_ZN11MutexLockerD2Ev.exit

_ZN11MutexLockerD2Ev.exit:                        ; preds = %5, %_ZN11MutexLockerC2EP5MutexNS0_18SafepointCheckFlagE.exit.thread, %0
  ret void
}